; Function Attrs: nounwind uwtable
define i32 @Abc_NtkClauseTriv(ptr noundef %0, ptr noundef %1, ptr noundef captures(none) initializes((4, 8)) %2) local_unnamed_addr #0 {
  %4 = getelementptr inbounds nuw i8, ptr %2, i64 4
  store i32 0, ptr %4, align 4
  %5 = ptrtoint ptr %1 to i64
  %6 = and i64 %5, -2
  %7 = inttoptr i64 %6 to ptr
  %8 = getelementptr inbounds nuw i8, ptr %7, i64 64
  %9 = load ptr, ptr %8, align 8
  %10 = load i32, ptr %2, align 8
  %11 = icmp eq i32 %10, 0
  %12 = getelementptr inbounds nuw i8, ptr %2, i64 8
  %13 = load ptr, ptr %12, align 8
  br i1 %11, label %14, label %Vec_IntPush.exit

14:                                               ; preds = %3
  %.not9.i.i = icmp eq ptr %13, null
  br i1 %.not9.i.i, label %17, label %15

15:                                               ; preds = %14
  %16 = tail call dereferenceable_or_null(64) ptr @realloc(ptr noundef nonnull %13, i64 noundef 64) #13
  %.pre.pre = load i32, ptr %4, align 4
  br label %Vec_IntGrow.exit.i

17:                                               ; preds = %14
  %18 = tail call noalias dereferenceable_or_null(64) ptr @malloc(i64 noundef 64) #12
  br label %Vec_IntGrow.exit.i

Vec_IntGrow.exit.i:                               ; preds = %17, %15
  %.pre = phi i32 [ %.pre.pre, %15 ], [ 0, %17 ]
  %19 = phi ptr [ %16, %15 ], [ %18, %17 ]
  store ptr %19, ptr %12, align 8
  store i32 16, ptr %2, align 8
  br label %Vec_IntPush.exit

Vec_IntPush.exit:                                 ; preds = %3, %Vec_IntGrow.exit.i
  %20 = phi i32 [ %.pre, %Vec_IntGrow.exit.i ], [ 0, %3 ]
  %21 = phi ptr [ %19, %Vec_IntGrow.exit.i ], [ %13, %3 ]
  %22 = ptrtoint ptr %9 to i64
  %23 = trunc i64 %22 to i32
  %24 = shl nsw i32 %23, 1
  %25 = trunc i64 %5 to i32
  %26 = and i32 %25, 1
  %27 = or disjoint i32 %24, %26
  %28 = add nsw i32 %20, 1
  store i32 %28, ptr %4, align 4
  %29 = sext i32 %20 to i64
  %30 = getelementptr inbounds i32, ptr %21, i64 %29
  store i32 %27, ptr %30, align 4
  %31 = getelementptr inbounds nuw i8, ptr %2, i64 8
  %32 = load ptr, ptr %31, align 8
  %33 = load i32, ptr %4, align 4
  %34 = sext i32 %33 to i64
  %35 = getelementptr inbounds i32, ptr %32, i64 %34
  %36 = tail call i32 @sat_solver_addclause(ptr noundef %0, ptr noundef %32, ptr noundef %35) #11
  ret i32 %36
}